target datalayout = "e-m:e-p270:32:32-p271:32:32-p272:64:64-i64:64-i128:128-f80:128-n8:16:32:64-S128"
target triple = "x86_64-pc-linux-gnu"

%struct.tm = type { i32, i32, i32, i32, i32, i32, i32, i32, i32, i64, ptr }

@.str.24 = private unnamed_addr constant [13 x i8] c"%a, %b %d %Y\00", align 1
@.str.25 = private unnamed_addr constant [15 x i8] c"*Invalid date*\00", align 1

; Function Attrs: nounwind uwtable
define hidden ptr @file_fmtdate(ptr noundef %0, i64 noundef %1, i16 noundef zeroext %2) #0 {
  %4 = alloca ptr, align 8
  %5 = alloca ptr, align 8
  %6 = alloca i64, align 8
  %7 = alloca i16, align 2
  %8 = alloca %struct.tm, align 8
  %9 = alloca i32, align 4
  store ptr %0, ptr %5, align 8, !tbaa !22
  store i64 %1, ptr %6, align 8, !tbaa !20
  store i16 %2, ptr %7, align 2, !tbaa !35
  call void @llvm.lifetime.start.p0(i64 56, ptr %8) #8
  call void @llvm.memset.p0.i64(ptr align 8 %8, i8 0, i64 56, i1 false)
  %10 = load i16, ptr %7, align 2, !tbaa !35
  %11 = zext i16 %10 to i32
  %12 = and i32 %11, 31
  %13 = getelementptr inbounds nuw %struct.tm, ptr %8, i32 0, i32 3
  store i32 %12, ptr %13, align 4, !tbaa !36
  %14 = load i16, ptr %7, align 2, !tbaa !35
  %15 = zext i16 %14 to i32
  %16 = ashr i32 %15, 5
  %17 = and i32 %16, 15
  %18 = sub nsw i32 %17, 1
  %19 = getelementptr inbounds nuw %struct.tm, ptr %8, i32 0, i32 4
  store i32 %18, ptr %19, align 8, !tbaa !38
  %20 = load i16, ptr %7, align 2, !tbaa !35
  %21 = zext i16 %20 to i32
  %22 = ashr i32 %21, 9
  %23 = add nsw i32 %22, 80
  %24 = getelementptr inbounds nuw %struct.tm, ptr %8, i32 0, i32 5
  store i32 %23, ptr %24, align 4, !tbaa !39
  %25 = load ptr, ptr %5, align 8, !tbaa !22
  %26 = load i64, ptr %6, align 8, !tbaa !20
  %27 = call i64 @strftime(ptr noundef %25, i64 noundef %26, ptr noundef @.str.24, ptr noundef %8) #8
  %28 = icmp eq i64 %27, 0
  br i1 %28, label %29, label %30

29:                                               ; preds = %3
  br label %32

30:                                               ; preds = %3
  %31 = load ptr, ptr %5, align 8, !tbaa !22
  store ptr %31, ptr %4, align 8
  store i32 1, ptr %9, align 4
  br label %37

32:                                               ; preds = %29
  %33 = load ptr, ptr %5, align 8, !tbaa !22
  %34 = load i64, ptr %6, align 8, !tbaa !20
  %35 = call i64 @php_strlcpy(ptr noundef %33, ptr noundef @.str.25, i64 noundef %34)
  %36 = load ptr, ptr %5, align 8, !tbaa !22
  store ptr %36, ptr %4, align 8
  store i32 1, ptr %9, align 4
  br label %37

37:                                               ; preds = %32, %30
  call void @llvm.lifetime.end.p0(i64 56, ptr %8) #8
  %38 = load ptr, ptr %4, align 8
  ret ptr %38
}