; Function Attrs: nounwind uwtable
define hidden noundef ptr @file_fmtdate(ptr noundef returned %0, i64 noundef %1, i16 noundef zeroext %2) local_unnamed_addr #4 {
  %4 = alloca %struct.tm, align 8
  call void @llvm.lifetime.start.p0(i64 56, ptr nonnull %4) #13
  call void @llvm.memset.p0.i64(ptr noundef nonnull align 8 dereferenceable(56) %4, i8 0, i64 56, i1 false)
  %5 = zext i16 %2 to i32
  %6 = and i32 %5, 31
  %7 = getelementptr inbounds nuw i8, ptr %4, i64 12
  store i32 %6, ptr %7, align 4, !tbaa !30
  %8 = lshr i32 %5, 5
  %9 = and i32 %8, 15
  %10 = add nsw i32 %9, -1
  %11 = getelementptr inbounds nuw i8, ptr %4, i64 16
  store i32 %10, ptr %11, align 8, !tbaa !32
  %12 = lshr i32 %5, 9
  %13 = add nuw nsw i32 %12, 80
  %14 = getelementptr inbounds nuw i8, ptr %4, i64 20
  store i32 %13, ptr %14, align 4, !tbaa !33
  %15 = call i64 @strftime(ptr noundef %0, i64 noundef %1, ptr noundef nonnull @.str.24, ptr noundef nonnull %4) #13
  %16 = icmp eq i64 %15, 0
  br i1 %16, label %17, label %19

17:                                               ; preds = %3
  %18 = call i64 @php_strlcpy(ptr noundef %0, ptr noundef nonnull @.str.25, i64 noundef %1) #13
  br label %19

19:                                               ; preds = %3, %17
  call void @llvm.lifetime.end.p0(i64 56, ptr nonnull %4) #13
  ret ptr %0
}